EXPORTS 
	?$TSS0@?1??instance@DefaultAllocator@flatbuffers@@SAAEAV23@XZ@4HA 	 DATA
	??_R0?AVAllocator@flatbuffers@@@8 	 DATA
	??_R0?AVBool@simple_msgs@@@8 	 DATA
	??_R0?AVDefaultAllocator@flatbuffers@@@8 	 DATA
	??_R0?AVGenericMessage@simple_msgs@@@8 	 DATA
	??_R0?AVHeader@simple_msgs@@@8 	 DATA
	??_R0?AVPoint@simple_msgs@@@8 	 DATA
	??_R0?AVPose@simple_msgs@@@8 	 DATA
	??_R0?AVQuaternion@simple_msgs@@@8 	 DATA
	??_R0?AVRotationMatrix@simple_msgs@@@8 	 DATA
	??_R0?AVString@simple_msgs@@@8 	 DATA
	??_R0?AVexception@std@@@8 	 DATA
	??_R0?AVlogic_error@std@@@8 	 DATA
	??_R0?AVout_of_range@std@@@8 	 DATA
	?Identity@RotationMatrix@simple_msgs@@2V12@B 	 DATA
	?inst@?1??instance@DefaultAllocator@flatbuffers@@SAAEAV23@XZ@4V23@A 	 DATA
	??$?6U?$char_traits@D@std@@@std@@YAAEAV?$basic_ostream@DU?$char_traits@D@std@@@0@AEAV10@PEBD@Z
	??$?8N$02@std@@YA_NAEBV?$array@N$02@0@0@Z
	??$?8N$03@std@@YA_NAEBV?$array@N$03@0@0@Z
	??$?8N$08@std@@YA_NAEBV?$array@N$08@0@0@Z
	??$AddElement@N@FlatBufferBuilder@flatbuffers@@QEAAXGNN@Z
	??$EndianScalar@E@flatbuffers@@YAEE@Z
	??$EndianScalar@G@flatbuffers@@YAGG@Z
	??$EndianScalar@H@flatbuffers@@YAHH@Z
	??$EndianScalar@I@flatbuffers@@YAII@Z
	??$EndianScalar@N@flatbuffers@@YANN@Z
	??$GetMutableRoot@UBoolFbs@simple_msgs@@@flatbuffers@@YAPEAUBoolFbs@simple_msgs@@PEAX@Z
	??$GetMutableRoot@UHeaderFbs@simple_msgs@@@flatbuffers@@YAPEAUHeaderFbs@simple_msgs@@PEAX@Z
	??$GetMutableRoot@UPointFbs@simple_msgs@@@flatbuffers@@YAPEAUPointFbs@simple_msgs@@PEAX@Z
	??$GetMutableRoot@UPoseFbs@simple_msgs@@@flatbuffers@@YAPEAUPoseFbs@simple_msgs@@PEAX@Z
	??$GetMutableRoot@UQuaternionFbs@simple_msgs@@@flatbuffers@@YAPEAUQuaternionFbs@simple_msgs@@PEAX@Z
	??$GetMutableRoot@URotationMatrixFbs@simple_msgs@@@flatbuffers@@YAPEAURotationMatrixFbs@simple_msgs@@PEAX@Z
	??$GetMutableRoot@UStringFbs@simple_msgs@@@flatbuffers@@YAPEAUStringFbs@simple_msgs@@PEAX@Z
	??$GetRoot@UBoolFbs@simple_msgs@@@flatbuffers@@YAPEBUBoolFbs@simple_msgs@@PEBX@Z
	??$GetRoot@UHeaderFbs@simple_msgs@@@flatbuffers@@YAPEBUHeaderFbs@simple_msgs@@PEBX@Z
	??$GetRoot@UPointFbs@simple_msgs@@@flatbuffers@@YAPEBUPointFbs@simple_msgs@@PEBX@Z
	??$GetRoot@UPoseFbs@simple_msgs@@@flatbuffers@@YAPEBUPoseFbs@simple_msgs@@PEBX@Z
	??$GetRoot@UQuaternionFbs@simple_msgs@@@flatbuffers@@YAPEBUQuaternionFbs@simple_msgs@@PEBX@Z
	??$GetRoot@URotationMatrixFbs@simple_msgs@@@flatbuffers@@YAPEBURotationMatrixFbs@simple_msgs@@PEBX@Z
	??$GetRoot@UStringFbs@simple_msgs@@@flatbuffers@@YAPEBUStringFbs@simple_msgs@@PEBX@Z
	??$PushElement@H@FlatBufferBuilder@flatbuffers@@QEAAIH@Z
	??$PushElement@I@FlatBufferBuilder@flatbuffers@@QEAAII@Z
	??$ReadScalar@E@flatbuffers@@YAEPEBX@Z
	??$ReadScalar@G@flatbuffers@@YAGPEBX@Z
	??$ReadScalar@H@flatbuffers@@YAHPEBX@Z
	??$ReadScalar@I@flatbuffers@@YAIPEBX@Z
	??$ReadScalar@N@flatbuffers@@YANPEBX@Z
	??$WriteScalar@G@flatbuffers@@YAXPEAXG@Z
	??$WriteScalar@H@flatbuffers@@YAXPEAXH@Z
	??$_Insert_string@DU?$char_traits@D@std@@_K@std@@YAAEAV?$basic_ostream@DU?$char_traits@D@std@@@0@AEAV10@QEBD_K@Z
	??$emplace_back@AEBI@?$vector@IV?$allocator@I@std@@@std@@QEAAXAEBI@Z
	??$emplace_back@AEBUFieldLoc@FlatBufferBuilder@flatbuffers@@@?$vector@UFieldLoc@FlatBufferBuilder@flatbuffers@@V?$allocator@UFieldLoc@FlatBufferBuilder@flatbuffers@@@std@@@std@@QEAAXAEBUFieldLoc@FlatBufferBuilder@flatbuffers@@@Z
	??0?$basic_string@DU?$char_traits@D@std@@V?$allocator@D@2@@std@@QEAA@AEBV01@@Z
	??0Bool@simple_msgs@@QEAA@$$QEAV01@@Z
	??0Bool@simple_msgs@@QEAA@AEBV01@@Z
	??0Bool@simple_msgs@@QEAA@PEBE@Z
	??0Bool@simple_msgs@@QEAA@XZ
	??0Bool@simple_msgs@@QEAA@_N@Z
	??0GenericMessage@simple_msgs@@QEAA@XZ
	??0Header@simple_msgs@@QEAA@$$QEAV01@@Z
	??0Header@simple_msgs@@QEAA@AEBV01@@Z
	??0Header@simple_msgs@@QEAA@HAEBV?$basic_string@DU?$char_traits@D@std@@V?$allocator@D@2@@std@@N@Z
	??0Header@simple_msgs@@QEAA@PEBE@Z
	??0Header@simple_msgs@@QEAA@XZ
	??0Point@simple_msgs@@QEAA@$$QEAV01@@Z
	??0Point@simple_msgs@@QEAA@$$QEAV?$array@N$02@std@@@Z
	??0Point@simple_msgs@@QEAA@AEBV01@@Z
	??0Point@simple_msgs@@QEAA@AEBV?$array@N$02@std@@@Z
	??0Point@simple_msgs@@QEAA@N@Z
	??0Point@simple_msgs@@QEAA@NNN@Z
	??0Point@simple_msgs@@QEAA@PEBE@Z
	??0Point@simple_msgs@@QEAA@XZ
	??0Pose@simple_msgs@@QEAA@$$QEAV01@@Z
	??0Pose@simple_msgs@@QEAA@AEBV01@@Z
	??0Pose@simple_msgs@@QEAA@AEBVPoint@1@AEBVQuaternion@1@@Z
	??0Pose@simple_msgs@@QEAA@PEBE@Z
	??0Pose@simple_msgs@@QEAA@XZ
	??0Quaternion@simple_msgs@@QEAA@$$QEAV01@@Z
	??0Quaternion@simple_msgs@@QEAA@$$QEAV?$array@N$03@std@@@Z
	??0Quaternion@simple_msgs@@QEAA@AEBV01@@Z
	??0Quaternion@simple_msgs@@QEAA@AEBV?$array@N$03@std@@@Z
	??0Quaternion@simple_msgs@@QEAA@NNNN@Z
	??0Quaternion@simple_msgs@@QEAA@PEBE@Z
	??0Quaternion@simple_msgs@@QEAA@XZ
	??0RotationMatrix@simple_msgs@@QEAA@$$QEAV01@@Z
	??0RotationMatrix@simple_msgs@@QEAA@$$QEAV?$array@N$08@std@@@Z
	??0RotationMatrix@simple_msgs@@QEAA@AEBV01@@Z
	??0RotationMatrix@simple_msgs@@QEAA@AEBV?$array@N$08@std@@@Z
	??0RotationMatrix@simple_msgs@@QEAA@N@Z
	??0RotationMatrix@simple_msgs@@QEAA@NNNNNNNNN@Z
	??0RotationMatrix@simple_msgs@@QEAA@PEBE@Z
	??0RotationMatrix@simple_msgs@@QEAA@XZ
	??0String@simple_msgs@@QEAA@$$QEAV01@@Z
	??0String@simple_msgs@@QEAA@$$QEAV?$basic_string@DU?$char_traits@D@std@@V?$allocator@D@2@@std@@@Z
	??0String@simple_msgs@@QEAA@AEBV01@@Z
	??0String@simple_msgs@@QEAA@AEBV?$basic_string@DU?$char_traits@D@std@@V?$allocator@D@2@@std@@@Z
	??0String@simple_msgs@@QEAA@PEBD@Z
	??0String@simple_msgs@@QEAA@PEBE@Z
	??0String@simple_msgs@@QEAA@XZ
	??0exception@std@@QEAA@AEBV01@@Z
	??0logic_error@std@@QEAA@AEBV01@@Z
	??0out_of_range@std@@QEAA@AEBV01@@Z
	??0out_of_range@std@@QEAA@PEBD@Z
	??1?$lock_guard@Vmutex@std@@@std@@QEAA@XZ
	??1?$unique_ptr@VFlatBufferBuilder@flatbuffers@@U?$default_delete@VFlatBufferBuilder@flatbuffers@@@std@@@std@@QEAA@XZ
	??1?$vector@IV?$allocator@I@std@@@std@@QEAA@XZ
	??1?$vector@UFieldLoc@FlatBufferBuilder@flatbuffers@@V?$allocator@UFieldLoc@FlatBufferBuilder@flatbuffers@@@std@@@std@@QEAA@XZ
	??1Allocator@flatbuffers@@UEAA@XZ
	??1GenericMessage@simple_msgs@@UEAA@XZ
	??1Point@simple_msgs@@UEAA@XZ
	??1Quaternion@simple_msgs@@UEAA@XZ
	??1String@simple_msgs@@UEAA@XZ
	??1_Sentry_base@?$basic_ostream@DU?$char_traits@D@std@@@std@@QEAA@XZ
	??1exception@std@@UEAA@XZ
	??1out_of_range@std@@UEAA@XZ
	??1sentry@?$basic_ostream@DU?$char_traits@D@std@@@std@@QEAA@XZ
	??1vector_downward@flatbuffers@@QEAA@XZ
	??4Bool@simple_msgs@@QEAAAEAV01@$$QEAV01@@Z
	??4Bool@simple_msgs@@QEAAAEAV01@AEBV01@@Z
	??4Header@simple_msgs@@QEAAAEAV01@$$QEAV01@@Z
	??4Header@simple_msgs@@QEAAAEAV01@AEBV01@@Z
	??4Header@simple_msgs@@QEAAAEAV01@PEBE@Z
	??4Point@simple_msgs@@QEAAAEAV01@$$QEAV01@@Z
	??4Point@simple_msgs@@QEAAAEAV01@$$QEAV?$array@N$02@std@@@Z
	??4Point@simple_msgs@@QEAAAEAV01@AEBV01@@Z
	??4Point@simple_msgs@@QEAAAEAV01@AEBV?$array@N$02@std@@@Z
	??4Point@simple_msgs@@QEAAAEAV01@PEBE@Z
	??4Pose@simple_msgs@@QEAAAEAV01@$$QEAV01@@Z
	??4Pose@simple_msgs@@QEAAAEAV01@AEBV01@@Z
	??4Pose@simple_msgs@@QEAAAEAV01@PEBE@Z
	??4Quaternion@simple_msgs@@QEAAAEAV01@$$QEAV01@@Z
	??4Quaternion@simple_msgs@@QEAAAEAV01@$$QEAV?$array@N$03@std@@@Z
	??4Quaternion@simple_msgs@@QEAAAEAV01@AEBV01@@Z
	??4Quaternion@simple_msgs@@QEAAAEAV01@AEBV?$array@N$03@std@@@Z
	??4Quaternion@simple_msgs@@QEAAAEAV01@PEBE@Z
	??4RotationMatrix@simple_msgs@@QEAAAEAV01@$$QEAV01@@Z
	??4RotationMatrix@simple_msgs@@QEAAAEAV01@$$QEAV?$array@N$08@std@@@Z
	??4RotationMatrix@simple_msgs@@QEAAAEAV01@AEBV01@@Z
	??4RotationMatrix@simple_msgs@@QEAAAEAV01@AEBV?$array@N$08@std@@@Z
	??4RotationMatrix@simple_msgs@@QEAAAEAV01@PEBE@Z
	??4String@simple_msgs@@QEAAAEAV01@$$QEAV01@@Z
	??4String@simple_msgs@@QEAAAEAV01@AEBV01@@Z
	??6simple_msgs@@YAAEAV?$basic_ostream@DU?$char_traits@D@std@@@std@@AEAV12@AEBVBool@0@@Z
	??6simple_msgs@@YAAEAV?$basic_ostream@DU?$char_traits@D@std@@@std@@AEAV12@AEBVHeader@0@@Z
	??6simple_msgs@@YAAEAV?$basic_ostream@DU?$char_traits@D@std@@@std@@AEAV12@AEBVPoint@0@@Z
	??6simple_msgs@@YAAEAV?$basic_ostream@DU?$char_traits@D@std@@@std@@AEAV12@AEBVPose@0@@Z
	??6simple_msgs@@YAAEAV?$basic_ostream@DU?$char_traits@D@std@@@std@@AEAV12@AEBVQuaternion@0@@Z
	??6simple_msgs@@YAAEAV?$basic_ostream@DU?$char_traits@D@std@@@std@@AEAV12@AEBVRotationMatrix@0@@Z
	??6simple_msgs@@YAAEAV?$basic_ostream@DU?$char_traits@D@std@@@std@@AEAV12@AEBVString@0@@Z
	??8Point@simple_msgs@@QEBA_NAEBV01@@Z
	??8Pose@simple_msgs@@QEBA_NAEBV01@@Z
	??8Quaternion@simple_msgs@@QEBA_NAEBV01@@Z
	??8RotationMatrix@simple_msgs@@QEBA_NAEBV01@@Z
	??9Point@simple_msgs@@QEBA_NAEBV01@@Z
	??9Pose@simple_msgs@@QEBA_NAEBV01@@Z
	??9Quaternion@simple_msgs@@QEBA_NAEBV01@@Z
	??9RotationMatrix@simple_msgs@@QEBA_NAEBV01@@Z
	??Dsimple_msgs@@YA?AVPoint@0@V10@AEBV10@@Z
	??Gsimple_msgs@@YA?AVPoint@0@V10@AEBV10@@Z
	??Hsimple_msgs@@YA?AVPoint@0@V10@AEBV10@@Z
	??Hsimple_msgs@@YA?AVString@0@V10@AEBV10@@Z
	??Ksimple_msgs@@YA?AVPoint@0@V10@AEBV10@@Z
	??XPoint@simple_msgs@@QEAAAEAV01@AEBV01@@Z
	??YPoint@simple_msgs@@QEAAAEAV01@AEBV01@@Z
	??YString@simple_msgs@@QEAAAEAV01@AEBV01@@Z
	??ZPoint@simple_msgs@@QEAAAEAV01@AEBV01@@Z
	??_0Point@simple_msgs@@QEAAAEAV01@AEBV01@@Z
	??__Finst@?1??instance@DefaultAllocator@flatbuffers@@SAAEAV12@XZ@YAXXZ
	?CreateString@FlatBufferBuilder@flatbuffers@@QEAA?AU?$Offset@UString@flatbuffers@@@2@PEBD_K@Z
	?EndTable@FlatBufferBuilder@flatbuffers@@QEAAII@Z
	?ReferTo@FlatBufferBuilder@flatbuffers@@QEAAII@Z
	?StartVector@FlatBufferBuilder@flatbuffers@@QEAAX_K0@Z
	?_Change_array@?$vector@IV?$allocator@I@std@@@std@@AEAAXQEAI_K1@Z
	?_Change_array@?$vector@UFieldLoc@FlatBufferBuilder@flatbuffers@@V?$allocator@UFieldLoc@FlatBufferBuilder@flatbuffers@@@std@@@std@@AEAAXQEAUFieldLoc@FlatBufferBuilder@flatbuffers@@_K1@Z
	?_Erase@?$_Tree@V?$_Tset_traits@U?$Offset@UString@flatbuffers@@@flatbuffers@@UStringOffsetCompare@FlatBufferBuilder@2@V?$allocator@U?$Offset@UString@flatbuffers@@@flatbuffers@@@std@@$0A@@std@@@std@@IEAAXPEAU?$_Tree_node@U?$Offset@UString@flatbuffers@@@flatbuffers@@PEAX@2@@Z
	?_Getal@?$_Vector_alloc@U?$_Vec_base_types@IV?$allocator@I@std@@@std@@@std@@QEAAAEAV?$allocator@I@2@XZ
	?_Getal@?$_Vector_alloc@U?$_Vec_base_types@UFieldLoc@FlatBufferBuilder@flatbuffers@@V?$allocator@UFieldLoc@FlatBufferBuilder@flatbuffers@@@std@@@std@@@std@@QEAAAEAV?$allocator@UFieldLoc@FlatBufferBuilder@flatbuffers@@@2@XZ
	?_Reallocate_exactly@?$vector@IV?$allocator@I@std@@@std@@AEAAX_K@Z
	?_Reallocate_exactly@?$vector@UFieldLoc@FlatBufferBuilder@flatbuffers@@V?$allocator@UFieldLoc@FlatBufferBuilder@flatbuffers@@@std@@@std@@AEAAX_K@Z
	?_Tidy_deallocate@?$basic_string@DU?$char_traits@D@std@@V?$allocator@D@2@@std@@QEAAXXZ
	?_Xlen@?$basic_string@DU?$char_traits@D@std@@V?$allocator@D@2@@std@@SAXXZ
	?_Xlength@?$vector@IV?$allocator@I@std@@@std@@CAXXZ
	?_Xlength@?$vector@UFieldLoc@FlatBufferBuilder@flatbuffers@@V?$allocator@UFieldLoc@FlatBufferBuilder@flatbuffers@@@std@@@std@@CAXXZ
	?add_timestamp@HeaderFbsBuilder@simple_msgs@@QEAAXN@Z
	?allocate@?$allocator@D@std@@QEAAPEAD_K@Z
	?allocate@?$allocator@I@std@@QEAAPEAI_K@Z
	?allocate@?$allocator@UFieldLoc@FlatBufferBuilder@flatbuffers@@@std@@QEAAPEAUFieldLoc@FlatBufferBuilder@flatbuffers@@_K@Z
	?allocate@DefaultAllocator@flatbuffers@@UEAAPEAE_K@Z
	?append@?$basic_string@DU?$char_traits@D@std@@V?$allocator@D@2@@std@@QEAAAEAV12@QEBD_K@Z
	?assign@?$basic_string@DU?$char_traits@D@std@@V?$allocator@D@2@@std@@QEAAAEAV12@QEBD_K@Z
	?clear@?$_Tree@V?$_Tset_traits@U?$Offset@UString@flatbuffers@@@flatbuffers@@UStringOffsetCompare@FlatBufferBuilder@2@V?$allocator@U?$Offset@UString@flatbuffers@@@flatbuffers@@@std@@$0A@@std@@@std@@QEAAXXZ
	?deallocate@?$allocator@I@std@@QEAAXQEAI_K@Z
	?deallocate@?$allocator@UFieldLoc@FlatBufferBuilder@flatbuffers@@@std@@QEAAXQEAUFieldLoc@FlatBufferBuilder@flatbuffers@@_K@Z
	?deallocate@DefaultAllocator@flatbuffers@@UEAAXPEAE_K@Z
	?getBufferData@Bool@simple_msgs@@UEBAPEAEXZ
	?getBufferData@Header@simple_msgs@@UEBAPEAEXZ
	?getBufferData@Point@simple_msgs@@UEBAPEAEXZ
	?getBufferData@Pose@simple_msgs@@UEBAPEAEXZ
	?getBufferData@Quaternion@simple_msgs@@UEBAPEAEXZ
	?getBufferData@RotationMatrix@simple_msgs@@UEBAPEAEXZ
	?getBufferData@String@simple_msgs@@UEBAPEAEXZ
	?getColumn@RotationMatrix@simple_msgs@@QEBA?AV?$array@N$02@std@@H@Z
	?getDataUnionElem@?$Image@E@simple_msgs@@AEBA?AU?$Offset@X@flatbuffers@@XZ
	?getDataUnionElem@?$Image@F@simple_msgs@@AEBA?AU?$Offset@X@flatbuffers@@XZ
	?getDataUnionElem@?$Image@M@simple_msgs@@AEBA?AU?$Offset@X@flatbuffers@@XZ
	?getDataUnionElem@?$Image@N@simple_msgs@@AEBA?AU?$Offset@X@flatbuffers@@XZ
	?getDataUnionType@?$Image@E@simple_msgs@@AEBA?AW4data@2@XZ
	?getDataUnionType@?$Image@F@simple_msgs@@AEBA?AW4data@2@XZ
	?getDataUnionType@?$Image@M@simple_msgs@@AEBA?AW4data@2@XZ
	?getDataUnionType@?$Image@N@simple_msgs@@AEBA?AW4data@2@XZ
	?getRow@RotationMatrix@simple_msgs@@QEBA?AV?$array@N$02@std@@H@Z
	?getTranspose@RotationMatrix@simple_msgs@@QEBA?AV12@XZ
	?make_space@vector_downward@flatbuffers@@QEAAPEAE_K@Z
	?reallocate_downward@Allocator@flatbuffers@@UEAAPEAEPEAE_K1@Z
	?setColumn@RotationMatrix@simple_msgs@@QEAAXHAEBV?$array@N$02@std@@@Z
	?setPosition@Pose@simple_msgs@@QEAAXAEBVPoint@2@@Z
	?setQuaternion@Pose@simple_msgs@@QEAAXAEBVQuaternion@2@@Z
	?setRow@RotationMatrix@simple_msgs@@QEAAXHAEBV?$array@N$02@std@@@Z
	?setW@Quaternion@simple_msgs@@QEAAXN@Z
	?setX@Point@simple_msgs@@QEAAXN@Z
	?setX@Quaternion@simple_msgs@@QEAAXN@Z
	?setY@Point@simple_msgs@@QEAAXN@Z
	?setY@Quaternion@simple_msgs@@QEAAXN@Z
	?setZ@Point@simple_msgs@@QEAAXN@Z
	?setZ@Quaternion@simple_msgs@@QEAAXN@Z
	?what@exception@std@@UEBAPEBDXZ
